; ModuleID = '56/350.c'
source_filename = "56/350.c"
target datalayout = "e-m:e-p270:32:32-p271:32:32-p272:64:64-i64:64-f80:128-n8:16:32:64-S128"
target triple = "x86_64-pc-linux-gnu"

@.str = private unnamed_addr constant [3 x i8] c"%d\00", align 1

; Function Attrs: noinline nounwind uwtable
define dso_local i32 @main() #0 {
  %1 = alloca i32, align 4
  %2 = alloca i32, align 4
  %3 = alloca i32, align 4
  %4 = alloca i32, align 4
  %5 = alloca i32, align 4
  %6 = alloca i32, align 4
  %7 = alloca i32, align 4
  store i32 0, i32* %1, align 4
  %8 = call i32 (i8*, ...) @__isoc99_scanf(i8* getelementptr inbounds ([3 x i8], [3 x i8]* @.str, i64 0, i64 0), i32* %2)
  store i32 1, i32* %6, align 4
  store i32 1, i32* %7, align 4
  br label %9

9:                                                ; preds = %22, %0
  %10 = load i32, i32* %7, align 4
  %11 = load i32, i32* %2, align 4
  %12 = icmp sle i32 %10, %11
  br i1 %12, label %13, label %25

13:                                               ; preds = %9
  %14 = load i32, i32* %2, align 4
  %15 = sdiv i32 %14, 10
  store i32 %15, i32* %5, align 4
  %16 = load i32, i32* %5, align 4
  %17 = icmp sgt i32 %16, 0
  br i1 %17, label %18, label %21

18:                                               ; preds = %13
  %19 = load i32, i32* %6, align 4
  %20 = add nsw i32 %19, 1
  store i32 %20, i32* %6, align 4
  br label %21

21:                                               ; preds = %18, %13
  br label %22

22:                                               ; preds = %21
  %23 = load i32, i32* %7, align 4
  %24 = add nsw i32 %23, 1
  store i32 %24, i32* %7, align 4
  br label %9

25:                                               ; preds = %9
  store i32 1, i32* %4, align 4
  br label %26

26:                                               ; preds = %41, %25
  %27 = load i32, i32* %4, align 4
  %28 = load i32, i32* %6, align 4
  %29 = icmp sle i32 %27, %28
  br i1 %29, label %30, label %44

30:                                               ; preds = %26
  %31 = load i32, i32* %2, align 4
  %32 = srem i32 %31, 10
  store i32 %32, i32* %3, align 4
  %33 = load i32, i32* %2, align 4
  %34 = sdiv i32 %33, 10
  store i32 %34, i32* %2, align 4
  %35 = load i32, i32* %3, align 4
  %36 = icmp ne i32 %35, 0
  br i1 %36, label %37, label %40

37:                                               ; preds = %30
  %38 = load i32, i32* %3, align 4
  %39 = call i32 (i8*, ...) @printf(i8* getelementptr inbounds ([3 x i8], [3 x i8]* @.str, i64 0, i64 0), i32 %38)
  br label %40

40:                                               ; preds = %37, %30
  br label %41

41:                                               ; preds = %40
  %42 = load i32, i32* %4, align 4
  %43 = add nsw i32 %42, 1
  store i32 %43, i32* %4, align 4
  br label %26

44:                                               ; preds = %26
  ret i32 0
}

declare dso_local i32 @__isoc99_scanf(i8*, ...) #1

declare dso_local i32 @printf(i8*, ...) #1


!llvm.module.flags = !{!0}
!llvm.ident = !{!1}

!0 = !{i32 1, !"wchar_size", i32 4}
!1 = !{!"clang version 10.0.0-4ubuntu1 "}
