; ModuleID = 'source-C-CXX/55/350.c'
source_filename = "source-C-CXX/55/350.c"
target datalayout = "e-m:e-p270:32:32-p271:32:32-p272:64:64-i64:64-f80:128-n8:16:32:64-S128"
target triple = "x86_64-pc-linux-gnu"

@.str = private unnamed_addr constant [3 x i8] c"%d\00", align 1

; Function Attrs: nofree nounwind sspstrong uwtable
define dso_local i32 @main() local_unnamed_addr #0 {
  %1 = alloca i32, align 4
  %2 = bitcast i32* %1 to i8*
  call void @llvm.lifetime.start.p0i8(i64 4, i8* nonnull %2) #3
  %3 = call i32 (i8*, ...) @__isoc99_scanf(i8* getelementptr inbounds ([3 x i8], [3 x i8]* @.str, i64 0, i64 0), i32* nonnull %1)
  %4 = load i32, i32* %1, align 4, !tbaa !5
  %5 = icmp slt i32 %4, 1
  %6 = icmp sgt i32 %4, 9
  %7 = add nuw i32 %4, 1
  %8 = select i1 %6, i32 %7, i32 1
  %9 = select i1 %5, i32 1, i32 %8
  br label %10

10:                                               ; preds = %20, %0
  %11 = phi i32 [ %22, %20 ], [ %4, %0 ]
  %12 = phi i32 [ %21, %20 ], [ 1, %0 ]
  %13 = srem i32 %11, 10
  %14 = sdiv i32 %11, 10
  store i32 %14, i32* %1, align 4, !tbaa !5
  %15 = icmp eq i32 %13, 0
  br i1 %15, label %18, label %16

16:                                               ; preds = %10
  %17 = call i32 (i8*, ...) @printf(i8* nonnull dereferenceable(1) getelementptr inbounds ([3 x i8], [3 x i8]* @.str, i64 0, i64 0), i32 %13)
  br label %18

18:                                               ; preds = %10, %16
  %19 = icmp eq i32 %12, %9
  br i1 %19, label %23, label %20, !llvm.loop !9

20:                                               ; preds = %18
  %21 = add nuw i32 %12, 1
  %22 = load i32, i32* %1, align 4, !tbaa !5
  br label %10

23:                                               ; preds = %18
  call void @llvm.lifetime.end.p0i8(i64 4, i8* nonnull %2) #3
  ret i32 0
}

; Function Attrs: argmemonly mustprogress nofree nosync nounwind willreturn
declare void @llvm.lifetime.start.p0i8(i64 immarg, i8* nocapture) #1

; Function Attrs: nofree nounwind
declare noundef i32 @__isoc99_scanf(i8* nocapture noundef readonly, ...) local_unnamed_addr #2

; Function Attrs: nofree nounwind
declare noundef i32 @printf(i8* nocapture noundef readonly, ...) local_unnamed_addr #2

; Function Attrs: argmemonly mustprogress nofree nosync nounwind willreturn
declare void @llvm.lifetime.end.p0i8(i64 immarg, i8* nocapture) #1


!llvm.module.flags = !{!0, !1, !2, !3}
!llvm.ident = !{!4}

!0 = !{i32 1, !"wchar_size", i32 4}
!1 = !{i32 7, !"PIC Level", i32 2}
!2 = !{i32 7, !"PIE Level", i32 2}
!3 = !{i32 7, !"uwtable", i32 1}
!4 = !{!"clang version 13.0.0"}
!5 = !{!6, !6, i64 0}
!6 = !{!"int", !7, i64 0}
!7 = !{!"omnipotent char", !8, i64 0}
!8 = !{!"Simple C/C++ TBAA"}
!9 = distinct !{!9, !10}
!10 = !{!"llvm.loop.mustprogress"}
